---
triple:          'arm64-apple-darwin'
binary-path:     '/Users/yp6ahoud/projects/C++/LeetCode/383.RansomNote'
relocations:
  - { offsetInCU: 0x26, offset: 0x26, size: 0x8, addend: 0x0, symName: _main, symObjAddr: 0x0, symBinAddr: 0x1000037C8, symSize: 0x12C }
  - { offsetInCU: 0x3129, offset: 0x3129, size: 0x8, addend: 0x0, symName: __ZNSt3__118__constexpr_strlenB8ue170006EPKc, symObjAddr: 0x674, symBinAddr: 0x100003E3C, symSize: 0x24 }
  - { offsetInCU: 0x5478, offset: 0x5478, size: 0x8, addend: 0x0, symName: _main, symObjAddr: 0x0, symBinAddr: 0x1000037C8, symSize: 0x12C }
  - { offsetInCU: 0x5643, offset: 0x5643, size: 0x8, addend: 0x0, symName: __ZNSt3__112basic_stringIcNS_11char_traitsIcEENS_9allocatorIcEEEC1B8ue170006ILi0EEEPKc, symObjAddr: 0x12C, symBinAddr: 0x1000038F4, symSize: 0x34 }
  - { offsetInCU: 0x56AF, offset: 0x56AF, size: 0x8, addend: 0x0, symName: __ZN8Solution12canConstructENSt3__112basic_stringIcNS0_11char_traitsIcEENS0_9allocatorIcEEEES6_, symObjAddr: 0x160, symBinAddr: 0x100003928, symSize: 0x150 }
  - { offsetInCU: 0x5729, offset: 0x5729, size: 0x8, addend: 0x0, symName: __ZNKSt3__112basic_stringIcNS_11char_traitsIcEENS_9allocatorIcEEE4sizeB8ue170006Ev, symObjAddr: 0x2B0, symBinAddr: 0x100003A78, symSize: 0x54 }
  - { offsetInCU: 0x574D, offset: 0x574D, size: 0x8, addend: 0x0, symName: __ZNSt3__112basic_stringIcNS_11char_traitsIcEENS_9allocatorIcEEEixB8ue170006Em, symObjAddr: 0x304, symBinAddr: 0x100003ACC, symSize: 0x30 }
  - { offsetInCU: 0x5780, offset: 0x5780, size: 0x8, addend: 0x0, symName: __ZNKSt3__112basic_stringIcNS_11char_traitsIcEENS_9allocatorIcEEE9__is_longB8ue170006Ev, symObjAddr: 0x334, symBinAddr: 0x100003AFC, symSize: 0x38 }
  - { offsetInCU: 0x57A4, offset: 0x57A4, size: 0x8, addend: 0x0, symName: __ZNKSt3__112basic_stringIcNS_11char_traitsIcEENS_9allocatorIcEEE15__get_long_sizeB8ue170006Ev, symObjAddr: 0x36C, symBinAddr: 0x100003B34, symSize: 0x28 }
  - { offsetInCU: 0x57C8, offset: 0x57C8, size: 0x8, addend: 0x0, symName: __ZNKSt3__112basic_stringIcNS_11char_traitsIcEENS_9allocatorIcEEE16__get_short_sizeB8ue170006Ev, symObjAddr: 0x394, symBinAddr: 0x100003B5C, symSize: 0x34 }
  - { offsetInCU: 0x57EC, offset: 0x57EC, size: 0x8, addend: 0x0, symName: __ZNKSt3__117__compressed_pairINS_12basic_stringIcNS_11char_traitsIcEENS_9allocatorIcEEE5__repES5_E5firstB8ue170006Ev, symObjAddr: 0x3C8, symBinAddr: 0x100003B90, symSize: 0x24 }
  - { offsetInCU: 0x5810, offset: 0x5810, size: 0x8, addend: 0x0, symName: __ZNKSt3__122__compressed_pair_elemINS_12basic_stringIcNS_11char_traitsIcEENS_9allocatorIcEEE5__repELi0ELb0EE5__getB8ue170006Ev, symObjAddr: 0x3EC, symBinAddr: 0x100003BB4, symSize: 0x14 }
  - { offsetInCU: 0x5834, offset: 0x5834, size: 0x8, addend: 0x0, symName: __ZNSt3__112basic_stringIcNS_11char_traitsIcEENS_9allocatorIcEEE13__get_pointerB8ue170006Ev, symObjAddr: 0x400, symBinAddr: 0x100003BC8, symSize: 0x54 }
  - { offsetInCU: 0x5858, offset: 0x5858, size: 0x8, addend: 0x0, symName: __ZNSt3__112basic_stringIcNS_11char_traitsIcEENS_9allocatorIcEEE18__get_long_pointerB8ue170006Ev, symObjAddr: 0x454, symBinAddr: 0x100003C1C, symSize: 0x28 }
  - { offsetInCU: 0x587C, offset: 0x587C, size: 0x8, addend: 0x0, symName: __ZNSt3__112basic_stringIcNS_11char_traitsIcEENS_9allocatorIcEEE19__get_short_pointerB8ue170006Ev, symObjAddr: 0x47C, symBinAddr: 0x100003C44, symSize: 0x28 }
  - { offsetInCU: 0x58A0, offset: 0x58A0, size: 0x8, addend: 0x0, symName: __ZNSt3__117__compressed_pairINS_12basic_stringIcNS_11char_traitsIcEENS_9allocatorIcEEE5__repES5_E5firstB8ue170006Ev, symObjAddr: 0x4A4, symBinAddr: 0x100003C6C, symSize: 0x24 }
  - { offsetInCU: 0x58C4, offset: 0x58C4, size: 0x8, addend: 0x0, symName: __ZNSt3__122__compressed_pair_elemINS_12basic_stringIcNS_11char_traitsIcEENS_9allocatorIcEEE5__repELi0ELb0EE5__getB8ue170006Ev, symObjAddr: 0x4C8, symBinAddr: 0x100003C90, symSize: 0x14 }
  - { offsetInCU: 0x58E8, offset: 0x58E8, size: 0x8, addend: 0x0, symName: __ZNSt3__114pointer_traitsIPcE10pointer_toB8ue170006ERc, symObjAddr: 0x4DC, symBinAddr: 0x100003CA4, symSize: 0x14 }
  - { offsetInCU: 0x590A, offset: 0x590A, size: 0x8, addend: 0x0, symName: __ZNSt3__112basic_stringIcNS_11char_traitsIcEENS_9allocatorIcEEEC2B8ue170006ILi0EEEPKc, symObjAddr: 0x4F0, symBinAddr: 0x100003CB8, symSize: 0x58 }
  - { offsetInCU: 0x594C, offset: 0x594C, size: 0x8, addend: 0x0, symName: __ZNSt3__117__compressed_pairINS_12basic_stringIcNS_11char_traitsIcEENS_9allocatorIcEEE5__repES5_EC1B8ue170006INS_18__default_init_tagESA_EEOT_OT0_, symObjAddr: 0x548, symBinAddr: 0x100003D10, symSize: 0x3C }
  - { offsetInCU: 0x59A2, offset: 0x59A2, size: 0x8, addend: 0x0, symName: __ZNSt3__111char_traitsIcE6lengthB8ue170006EPKc, symObjAddr: 0x584, symBinAddr: 0x100003D4C, symSize: 0x34 }
  - { offsetInCU: 0x59C4, offset: 0x59C4, size: 0x8, addend: 0x0, symName: __ZNSt3__117__compressed_pairINS_12basic_stringIcNS_11char_traitsIcEENS_9allocatorIcEEE5__repES5_EC2B8ue170006INS_18__default_init_tagESA_EEOT_OT0_, symObjAddr: 0x5B8, symBinAddr: 0x100003D80, symSize: 0x3C }
  - { offsetInCU: 0x5A1A, offset: 0x5A1A, size: 0x8, addend: 0x0, symName: __ZNSt3__122__compressed_pair_elemINS_12basic_stringIcNS_11char_traitsIcEENS_9allocatorIcEEE5__repELi0ELb0EEC2B8ue170006ENS_18__default_init_tagE, symObjAddr: 0x5F4, symBinAddr: 0x100003DBC, symSize: 0x14 }
  - { offsetInCU: 0x5A4C, offset: 0x5A4C, size: 0x8, addend: 0x0, symName: __ZNSt3__122__compressed_pair_elemINS_9allocatorIcEELi1ELb1EEC2B8ue170006ENS_18__default_init_tagE, symObjAddr: 0x608, symBinAddr: 0x100003DD0, symSize: 0x2C }
  - { offsetInCU: 0x5A7E, offset: 0x5A7E, size: 0x8, addend: 0x0, symName: __ZNSt3__19allocatorIcEC2B8ue170006Ev, symObjAddr: 0x634, symBinAddr: 0x100003DFC, symSize: 0x2C }
  - { offsetInCU: 0x5AA6, offset: 0x5AA6, size: 0x8, addend: 0x0, symName: __ZNSt3__116__non_trivial_ifILb1ENS_9allocatorIcEEEC2B8ue170006Ev, symObjAddr: 0x660, symBinAddr: 0x100003E28, symSize: 0x14 }
...
